(dp0
Vred cabbage
p1
I467
sVtomatoes with juice
p2
I590
sVturkey meat
p3
I675
sVsweet potatoes
p4
I81
sVbulb
p5
I765
sVmilk
p6
I11
sVItalian bread
p7
I211
sVpreserves
p8
I730
sVminced onion
p9
I263
sVpineapple juice
p10
I292
sVgrated orange
p11
I440
sVfusilli
p12
I683
sVlight mayonnaise
p13
I563
sVonion powder
p14
I136
sVpork shoulder
p15
I412
sVcayenne pepper
p16
I23
sVvegetable broth
p17
I273
sVmozzarella cheese
p18
I153
sVcouscous
p19
I216
sVwhite bread
p20
I227
sVmixed vegetables
p21
I672
sVdried cranberries
p22
I43
sVmelted butter
p23
I186
sVchopped fresh chives
p24
I77
sVground pork sausage
p25
I817
sVvanilla extract
p26
I33
sVwasabi paste
p27
I347
sVyeast
p28
I572
sVfat
p29
I218
sVpork butt
p30
I491
sVgarlic salt
p31
I315
sVmarinara sauce
p32
I101
sVranch dressing
p33
I254
sVjack
p34
I529
sVboiling water
p35
I127
sVjack cheese
p36
I423
sVbrewed coffee
p37
I520
sVicing
p38
I571
sVcurry paste
p39
I302
sVrefrigerated crescent rolls
p40
I432
sVpeaches
p41
I477
sVtortillas
p42
I332
sVfresh sage
p43
I530
sVpork shoulder roast
p44
I331
sVasparagus
p45
I299
sVgreen pepper
p46
I155
sVgolden mushroom soup
p47
I812
sVfresh basil
p48
I52
sVorzo
p49
I471
sVkidney beans
p50
I374
sVpork
p51
I45
sVseasoning
p52
I4
sVbacon
p53
I130
sVbaking mix
p54
I493
sVbeef consomme
p55
I484
sVcrab meat
p56
I344
sVchopped cilantro
p57
I38
sVmushroom soup
p58
I804
sVchopped fresh thyme
p59
I319
sVspaghetti
p60
I117
sVfresh mint
p61
I384
sVchicken salad
p62
I736
sVsauerkraut
p63
I566
sVtarragon
p64
I622
sVfrozen broccoli
p65
I552
sVbay leaves
p66
I151
sVfresh tarragon
p67
I373
sVherb seasoning
p68
I716
sVwhite wine
p69
I179
sVapplesauce
p70
I589
sVegg substitute
p71
I505
sVcroutons
p72
I627
sVchipotle chile powder
p73
I339
sVspicy brown mustard
p74
I97
sVcocoa powder
p75
I458
sVpart-skim mozzarella cheese
p76
I190
sVchili powder
p77
I26
sVcubed beef
p78
I769
sVwhole peeled tomatoes
p79
I325
sVkalamata
p80
I304
sVtoasted pecans
p81
I205
sVcondensed tomato soup
p82
I651
sVmango chutney
p83
I714
sVwater
p84
I19
sVblueberries
p85
I687
sVpeanut oil
p86
I132
sVrotini
p87
I595
sVgreen bell pepper
p88
I119
sVfrosting
p89
I163
sVmashed banana
p90
I738
sVskim milk
p91
I308
sVvinegar
p92
I241
sVcrumbles
p93
I719
sVground cayenne pepper
p94
I479
sVbroccoli florets
p95
I537
sVleaves
p96
I359
sVactive dry yeast
p97
I383
sVfresh lemon
p98
I414
sVcooked chicken
p99
I118
sVchili sauce
p100
I341
sVshredded lettuce
p101
I156
sVcinnamon
p102
I390
sVtomato paste
p103
I193
sVsea salt
p104
I40
sVevaporated milk
p105
I255
sVvegetable oil
p106
I12
sVshredded coconut
p107
I444
sVcanola
p108
I608
sVcaramel topping
p109
I792
sVfresh oregano
p110
I280
sVliqueur
p111
I633
sVbalsamic vinegar
p112
I212
sVchunky
p113
I747
sVlow-fat mayonnaise
p114
I96
sVseasoning mix
p115
I799
sVsoftened butter
p116
I226
sVlime
p117
I50
sVramen
p118
I744
sVcondensed soup
p119
I805
sVbrown rice
p120
I486
sVvirgin olive oil
p121
I735
sVfresh basil leaves
p122
I284
sVsweet onion
p123
I230
sVcrab
p124
I686
sVhot chili
p125
I82
sVbouillon granules
p126
I692
sVgarnish
p127
I497
sVAmerican cheese
p128
I723
sVwhole wheat bread
p129
I611
sVbutternut squash
p130
I352
sVunsweetened applesauce
p131
I759
sVgreen peas
p132
I320
sVdressing
p133
I429
sVscallions
p134
I66
sVpoblano peppers
p135
I46
sVchipotle
p136
I455
sVgarlic powder
p137
I15
sVsweetener
p138
I538
sVtaco seasoning mix
p139
I291
sVgranulated sugar
p140
I232
sVsalad
p141
I430
sVsteak sauce
p142
I712
sVcondensed cream
p143
I820
sVdark beer
p144
I638
sVsoup
p145
I610
sVfresh spinach
p146
I367
sVcrackers
p147
I536
sVbaby spinach leaves
p148
I235
sVramen noodles
p149
I510
sVkosher salt
p150
I54
sVcorned beef
p151
I528
sVground nutmeg
p152
I207
sVsmoked paprika
p153
I387
sVhamburger
p154
I700
sVground mustard
p155
I653
sVpork tenderloin
p156
I416
sVdried rosemary
p157
I361
sVdry sherry
p158
I192
sVfish sauce
p159
I137
sVhoney
p160
I175
sVgreen beans
p161
I63
sVcornflakes
p162
I753
sVshredded zucchini
p163
I617
sVpie shell
p164
I587
sVonions
p165
I24
sVcaraway
p166
I810
sVbeef stew
p167
I508
sVlight soy sauce
p168
I104
sVlamb
p169
I365
sVbeef
p170
I406
sVMexican cheese blend
p171
I289
sVpickle juice
p172
I774
sVnuts
p173
I586
sVmeat sauce
p174
I758
sVbuns
p175
I606
sVpizza crust
p176
I189
sVgreen olives
p177
I551
sVsoup mix
p178
I789
sVpepper sauce
p179
I507
sVfresh rosemary
p180
I199
sVunsalted butter
p181
I176
sVloaves
p182
I755
sVbalsamic vinaigrette
p183
I506
sVprocessed cheese
p184
I607
sVlight sour cream
p185
I372
sVsoda
p186
I565
sVseafood seasoning
p187
I465
sVblack pepper
p188
I21
sVyellow mustard
p189
I434
sVdiced potatoes
p190
I740
sVpotato flakes
p191
I760
sVsalsa
p192
I293
sVcabbage
p193
I108
sVfrozen peas
p194
I285
sVice cream
p195
I733
sVbread slices
p196
I146
sVbrown gravy
p197
I797
sValmond extract
p198
I42
sVliquid
p199
I394
sVpizza sauce
p200
I645
sVhot pepper sauce
p201
I145
sVwide egg noodles
p202
I660
sVserrano
p203
I346
sVbacon grease
p204
I667
sVmango
p205
I111
sVbeef stock
p206
I312
sVbatter
p207
I745
sVmasa harina
p208
I442
sVdiced tomatoes
p209
I143
sVwine
p210
I523
sVlight brown sugar
p211
I152
sVshredded carrots
p212
I251
sVmuffin
p213
I795
sVcrushed pineapple
p214
I612
sVspices
p215
I400
sVchicken bouillon
p216
I329
sVbaby carrots
p217
I283
sVcrumbs
p218
I487
sVdill pickles
p219
I577
sVplain yogurt
p220
I366
sVchow mein noodles
p221
I680
sVsoy milk
p222
I695
sVavocado
p223
I74
sVdried minced onion
p224
I496
sVrounds
p225
I757
sVrelish
p226
I560
sVcrescent rolls
p227
I779
sVgolden raisins
p228
I265
sVpoultry
p229
I786
sVlemon pepper
p230
I489
sVorange
p231
I275
sVpeanuts
p232
I107
sVpesto
p233
I178
sVfresh parsley
p234
I131
sVsauce
p235
I159
sVcheese slices
p236
I362
sVcoffee
p237
I605
sVred bell pepper
p238
I83
sVadobo sauce
p239
I338
sVground red pepper
p240
I134
sVpecans
p241
I222
sVfat-free mayonnaise
p242
I462
sVpineapple chunks
p243
I661
sVflour
p244
I41
sVwasabi
p245
I376
sVsliced green olives
p246
I731
sVadobo seasoning
p247
I728
sVpowdered sugar
p248
I35
sVcelery seed
p249
I592
sVcrushed garlic
p250
I139
sVfinely chopped onion
p251
I173
sVbread
p252
I476
sVcoriander
p253
I228
sVchopped onion
p254
I162
sVmeat
p255
I546
sVthyme
p256
I9
sVchili beans
p257
I532
sVpotatoes
p258
I129
sVsliced mushrooms
p259
I114
sVtortilla chips
p260
I148
sVchuck
p261
I224
sVgoat
p262
I783
sVsliced almonds
p263
I439
sVfilling
p264
I808
sVroast
p265
I671
sVrusset potatoes
p266
I413
sVstock
p267
I112
sVcracked black pepper
p268
I195
sVlight cream
p269
I603
sVchili seasoning
p270
I800
sVpoblano
p271
I710
sVflorets
p272
I478
sVallspice
p273
I183
sVlime zest
p274
I287
sVtaco seasoning
p275
I356
sVdry white wine
p276
I172
sVfish
p277
I503
sVfresh blueberries
p278
I659
sVcooking spray
p279
I79
sVlettuce leaves
p280
I161
sVboneless pork loin
p281
I200
sVchipotle chile
p282
I71
sVextract
p283
I764
sVbeaten eggs
p284
I535
sVdried dill
p285
I726
sVpinto beans
p286
I514
sVchicken stock
p287
I149
sVricotta cheese
p288
I345
sVlean ground beef
p289
I288
sVheavy cream
p290
I116
sVmashed potatoes
p291
I559
sVground sirloin
p292
I504
sVred
p293
I644
sVwine vinegar
p294
I734
sVchiles
p295
I337
sVwalnuts
p296
I68
sVbase
p297
I521
sVgrapes
p298
I681
sVleaf lettuce
p299
I718
sVdry yeast
p300
I526
sVtomato juice
p301
I637
sVsteak
p302
I239
sVgelatin
p303
I682
sVchopped garlic
p304
I236
sVdry milk powder
p305
I791
sVlemon zest
p306
I103
sVwheat bran
p307
I469
sVpoultry seasoning
p308
I494
sVpudding
p309
I634
sVpepperoni
p310
I154
sVground sausage
p311
I677
sVorange zest
p312
I435
sVgarlic
p313
I2
sVlasagna noodles
p314
I253
sVcheese
p315
I125
sVdark corn syrup
p316
I579
sVslivered almonds
p317
I260
sVcold water
p318
I182
sVapple cider
p319
I150
sVlettuce
p320
I463
sVstew meat
p321
I646
sVcherry tomatoes
p322
I300
sVprepared horseradish
p323
I350
sVgreen onions
p324
I140
sVspinach
p325
I80
sVdark chocolate
p326
I632
sVhoney mustard
p327
I729
sVground beef
p328
I185
sVground cumin
p329
I28
sVpenne pasta
p330
I214
sVdark brown sugar
p331
I268
sVegg noodles
p332
I445
sVcracker crumbs
p333
I343
sVsyrup
p334
I699
sVcelery salt
p335
I351
sVgrated carrot
p336
I690
sVwhole milk
p337
I242
sVbutter
p338
I18
sVfresh dill
p339
I342
sVflaked
p340
I746
sVcereal
p341
I749
sVsolid pack pumpkin
p342
I407
sVground chuck
p343
I541
sVred pepper flakes
p344
I316
sVhabanero pepper
p345
I609
sViceberg
p346
I768
sVbacon pieces
p347
I741
sVoats
p348
I691
sVfrozen corn
p349
I272
sVbrowning
p350
I707
sVcreamy peanut butter
p351
I92
sVapples
p352
I353
sVboneless chicken breast
p353
I389
sVground coriander
p354
I73
sVcider
p355
I642
sVcoconut
p356
I425
sVyellow bell pepper
p357
I274
sVcoleslaw
p358
I314
sVcooking oil
p359
I13
sVslaw
p360
I561
sVpeas
p361
I495
sVcarrots
p362
I123
sVpeppercorns
p363
I326
sVfresh ginger
p364
I61
sVjuice
p365
I446
sVlemon juice
p366
I25
sVbrown gravy mix
p367
I798
sVpastry
p368
I601
sVdried parsley
p369
I501
sVapple cider vinegar
p370
I369
sVmint
p371
I481
sVany
p372
I788
sVclove
p373
I311
sVroux
p374
I754
sVmin
p375
I727
sVred pepper
p376
I99
sVwheat flour
p377
I468
sVfresh bean
p378
I780
sVsweet pickle
p379
I703
sVartichoke hearts
p380
I322
sVsandwiches
p381
I743
sVsherry
p382
I115
sVzucchini
p383
I282
sVcoconut milk
p384
I201
sVbok choy
p385
I433
sVunsweetened chocolate
p386
I548
sVeggs
p387
I10
sVsalmon
p388
I706
sVmace
p389
I267
sVcrumbled blue cheese
p390
I223
sVshallots
p391
I22
sVdried thyme
p392
I196
sVchile powder
p393
I138
sVartificial sweetener
p394
I806
sVripe olives
p395
I648
sVbeets
p396
I554
sVpie filling
p397
I777
sVseafood
p398
I684
sVcrushed red pepper
p399
I170
sVbutton mushrooms
p400
I324
sVheavy whipping cream
p401
I243
sVpineapple
p402
I564
sVsliced carrots
p403
I669
sVsalt
p404
I6
sVbroiler
p405
I732
sVground ginger
p406
I34
sVorzo pasta
p407
I375
sVbell pepper
p408
I357
sVbeef bouillon granules
p409
I483
sVcrust
p410
I379
sVtequila
p411
I378
sVpepper flakes
p412
I475
sVsage
p413
I543
sVparsley flakes
p414
I678
sVsesame oil
p415
I65
sVfennel
p416
I436
sVmeatballs
p417
I679
sVfresh pineapple
p418
I44
sVchicken
p419
I336
sVtoast
p420
I613
sVboneless skinless chicken
p421
I418
sVhash brown
p422
I498
sVsugar
p423
I30
sVcelery
p424
I133
sVjam
p425
I395
sVblack
p426
I636
sVbeef bouillon
p427
I708
sVMexican oregano
p428
I549
sVbacon slices
p429
I78
sVrice
p430
I94
sVfresh orange juice
p431
I591
sVgraham cracker crumbs
p432
I303
sVpumpkin
p433
I598
sVcooked bacon
p434
I599
sVmein
p435
I778
sVgoat cheese
p436
I385
sVdry red wine
p437
I348
sVmolasses
p438
I120
sVred wine
p439
I364
sVbreast
p440
I813
sVcubed potatoes
p441
I770
sVvegetable shortening
p442
I240
sVjicama
p443
I396
sVchips
p444
I517
sVchutney
p445
I492
sVseasoned bread crumbs
p446
I419
sVcrushed tomatoes
p447
I198
sVchunky salsa
p448
I290
sVgreens
p449
I209
sVpie crust
p450
I647
sVcrabmeat
p451
I408
sVfresh thyme
p452
I184
sVcumin
p453
I248
sVsemisweet chocolate
p454
I234
sVnutmeg
p455
I453
sVagave nectar
p456
I584
sVdough
p457
I447
sVbread crumbs
p458
I180
sVsour cream
p459
I157
sVears
p460
I771
sVcilantro
p461
I370
sVpickle relish
p462
I614
sVgrilled chicken
p463
I654
sVunsweetened cocoa powder
p464
I309
sVmargarine
p465
I266
sVbacon drippings
p466
I164
sVnoodles
p467
I269
sVglaze
p468
I511
sVlight corn syrup
p469
I500
sVchicken breasts
p470
I88
sVwheat bread
p471
I721
sVwhite vinegar
p472
I39
sVpepper jack
p473
I582
sVwhiskey
p474
I382
sVcookies
p475
I670
sVdried oregano
p476
I56
sVcilantro leaves
p477
I286
sVbasil leaves
p478
I296
sVdried sage
p479
I574
sVbutternut
p480
I793
sVcooked turkey
p481
I558
sVchampagne
p482
I575
sVonion soup mix
p483
I724
sVmeal
p484
I796
sVchili pepper
p485
I417
sVpastry flour
p486
I656
sVcauliflower
p487
I247
sVcornmeal
p488
I438
sVspinach leaves
p489
I301
sVhabanero
p490
I722
sVwhite wine vinegar
p491
I249
sVshell pasta
p492
I674
sVfeta cheese
p493
I276
sVprovolone cheese
p494
I57
sVbarbecue sauce
p495
I451
sVdill weed
p496
I553
sVorange juice
p497
I441
sVdry bread crumbs
p498
I264
sVpotato chips
p499
I657
sVcheese spread
p500
I620
sVfrozen corn kernels
p501
I518
sVextra-virgin olive oil
p502
I53
sVeggplant
p503
I202
sVchorizo
p504
I363
sVpeanut butter
p505
I388
sVliquid smoke
p506
I624
sVolive oil
p507
I37
sVmarjoram
p508
I581
sVbay leaf
p509
I29
sVcooked rice
p510
I87
sVlarge eggs
p511
I126
sVchicken pieces
p512
I516
sVice water
p513
I452
sVchicken broth
p514
I84
sVsoy
p515
I776
sVarugula
p516
I443
sVmustard powder
p517
I262
sVfresh orange
p518
I782
sVoregano
p519
I245
sVcorn kernels
p520
I391
sVchicken breast halves
p521
I160
sVground paprika
p522
I580
sVsliced green onions
p523
I85
sVwhite pepper
p524
I64
sVfresh asparagus
p525
I221
sVdried basil
p526
I142
sViceberg lettuce
p527
I49
sVhamburger buns
p528
I225
sVshiitake
p529
I167
sVparsley
p530
I144
sVshortening
p531
I368
sVbuttermilk
p532
I165
sVbeer
p533
I340
sVcherries
p534
I556
sVfresh chives
p535
I454
sVcanned chicken
p536
I816
sVegg whites
p537
I294
sVbasil
p538
I171
sVwhite rice
p539
I188
sVpanko
p540
I629
sVhoisin sauce
p541
I91
sVfrozen mixed vegetables
p542
I596
sVcream cheese
p543
I147
sVchicken strips
p544
I784
sVsquash
p545
I650
sVfresh cilantro
p546
I72
sVwild rice
p547
I790
sVblack beans
p548
I270
sVsausages
p549
I60
sVginger
p550
I197
sVchipotle peppers
p551
I410
sVseasoning salt
p552
I252
sVchili
p553
I427
sVbrown mustard
p554
I802
sVegg yolks
p555
I298
sVancho
p556
I761
sVvanilla
p557
I204
sVsugar pumpkin
p558
I773
sVflaked coconut
p559
I513
sVred kidney beans
p560
I420
sVcheese soup
p561
I698
sVsesame
p562
I567
sVthyme leaves
p563
I411
sVcooked white rice
p564
I354
sVsingle crust pie
p565
I602
sVmarinade
p566
I524
sVhot sauce
p567
I128
sVelbow macaroni
p568
I544
sVstuffing
p569
I323
sVpeanut sauce
p570
I191
sVchopped pecans
p571
I426
sVchopped almonds
p572
I377
sVbroth
p573
I594
sVpasta sauce
p574
I327
sVjelly
p575
I662
sVshredded cheese
p576
I358
sVpasta shells
p577
I709
sVyellow onion
p578
I16
sVcasings
p579
I781
sVbeef round
p580
I801
sVoyster sauce
p581
I106
sVsliced black olives
p582
I360
sVshoulder roast
p583
I814
sVgreen cabbage
p584
I525
sVchestnuts
p585
I231
sVrice vinegar
p586
I203
sVwhipped topping
p587
I547
sVground white pepper
p588
I404
sVdried pinto beans
p589
I578
sVshredded mozzarella cheese
p590
I213
sVbaking powder
p591
I36
sVsprouts
p592
I623
sVrice noodles
p593
I95
sVmacaroni
p594
I652
sVground cinnamon
p595
I32
sVchocolate chips
p596
I742
sVchopped celery
p597
I261
sVbaked beans
p598
I689
sVtomatoes
p599
I7
sVsalad greens
p600
I655
sVchuck roast
p601
I313
sVoil
p602
I27
sVsweet pickle relish
p603
I696
sVcold milk
p604
I666
sVground black pepper
p605
I8
sVground round
p606
I618
sVbeef stew meat
p607
I693
sVhand
p608
I739
sVsirloin steak
p609
I640
sVfruit
p610
I295
sVcucumber
p611
I278
sVground meat
p612
I466
sVtuna
p613
I401
sVnapa cabbage
p614
I168
sVbroccoli
p615
I100
sVrolled oats
p616
I597
sVground cloves
p617
I210
sVsnow peas
p618
I321
sVbeef sirloin
p619
I588
sVboneless pork shoulder
p620
I568
sVonion soup
p621
I542
sVbeef broth
p622
I485
sVburgers
p623
I519
sVpork chops
p624
I473
sVveal
p625
I626
sVbacon bits
p626
I628
sVhot dogs
p627
I641
sVvinaigrette
p628
I664
sVchicken meat
p629
I512
sVcorn chips
p630
I460
sVpork butt roast
p631
I756
sVsteak seasoning
p632
I766
sVfresh mushrooms
p633
I421
sVbananas
p634
I488
sVgrated nutmeg
p635
I238
sVsteamer
p636
I502
sVpork loin
p637
I89
sVtopping
p638
I815
sVunflavored gelatin
p639
I281
sVham
p640
I306
sVextra
p641
I807
sVcayenne
p642
I217
sVketchup
p643
I393
sVpepperoncini
p644
I763
sVhorseradish
p645
I456
sVcranberries
p646
I668
sVdiced celery
p647
I398
sVBurgundy wine
p648
I767
sVlow-fat milk
p649
I402
sVpork roast
p650
I625
sVpoppy seeds
p651
I569
sVcottage cheese
p652
I550
sVchives
p653
I105
sVpimentos
p654
I55
sVmedium egg noodles
p655
I515
sVnew potatoes
p656
I593
sVcream cheese spread
p657
I819
sVteriyaki sauce
p658
I509
sVhot pepper
p659
I531
sVwhite sugar
p660
I141
sVrefried beans
p661
I297
sVromaine lettuce
p662
I0
sVpies
p663
I762
sVchopped parsley
p664
I431
sVflavoring
p665
I715
sVmaple syrup
p666
I206
sVred wine vinegar
p667
I257
sVgreen chilies
p668
I14
sVcider vinegar
p669
I428
sVcocoa
p670
I643
sVbacon fat
p671
I631
sVpeeled tomatoes
p672
I335
sVmedium salsa
p673
I794
sVblack peppercorns
p674
I229
sVwheat germ
p675
I448
sVground veal
p676
I405
sVricotta
p677
I424
sVfresh corn
p678
I616
sVMexican cheese
p679
I459
sVgravy
p680
I545
sVyolk
p681
I619
sVchocolate
p682
I583
sValmonds
p683
I333
sVtaco sauce
p684
I330
sVpecan halves
p685
I380
sVvanilla pudding
p686
I809
sVpickles
p687
I449
sVmeatloaf
p688
I752
sVbouillon cube
p689
I663
sVstuffing mix
p690
I673
sVskinless chicken breasts
p691
I371
sVshredded coleslaw mix
p692
I685
sVbaking soda
p693
I174
sVice
p694
I220
sVground pork
p695
I122
sVchopped walnuts
p696
I187
sVtoasted sesame seeds
p697
I415
sVcorn tortillas
p698
I47
sVturkey
p699
I557
sVpepper
p700
I3
sVwheat
p701
I20
sVzest
p702
I717
sVrum
p703
I233
sVrub
p704
I649
sVcorn
p705
I392
sVonion salt
p706
I665
sVolives
p707
I102
sVwater chestnuts
p708
I397
sVstew
p709
I750
sVpumpkin pie spice
p710
I621
sVpasta
p711
I317
sVground pepper
p712
I5
sVdiced ham
p713
I702
sVsesame seeds
p714
I98
sVherbs
p715
I109
sVrosemary
p716
I576
sVcanola oil
p717
I58
sVcheese sauce
p718
I720
sVshrimp
p719
I135
sVseeds
p720
I540
sVbeans
p721
I422
sVchile pepper
p722
I113
sVgreen chile
p723
I334
sVcremini
p724
I811
sVcurry
p725
I181
sVother
p726
I818
sVground turmeric
p727
I194
sVsweetened condensed milk
p728
I219
sVonion flakes
p729
I704
sVtofu
p730
I307
sVground thyme
p731
I490
sVtenderloin
p732
I533
sVmushrooms
p733
I59
sVloin
p734
I725
sVbrown sugar
p735
I208
sVkielbasa
p736
I305
sVcooked ham
p737
I237
sVrolls
p738
I474
sVcustard
p739
I658
sVwarm water
p740
I215
sVroasted peanuts
p741
I90
sVboneless chicken
p742
I635
sVvegetable juice
p743
I464
sVshells
p744
I555
sVvegetables
p745
I355
sVanise
p746
I310
sVsun-dried tomatoes
p747
I457
sVblue cheese
p748
I697
sVwhole wheat flour
p749
I470
sVtop sirloin
p750
I600
sVall-purpose flour
p751
I76
sVcorn syrup
p752
I381
sVdry mustard
p753
I62
sVwhite onion
p754
I246
sVraisins
p755
I259
sVsalad dressing
p756
I539
sVstrawberries
p757
I409
sVadobo
p758
I775
sVfresh lime juice
p759
I86
sVbaby spinach
p760
I399
sVdry lasagna
p761
I711
sVcheddar cheese
p762
I48
sVpaprika
p763
I110
sVflour tortillas
p764
I124
sVbouillon
p765
I737
sVwhole cloves
p766
I585
sVblack olives
p767
I1
sVcake
p768
I570
sVpart-skim mozzarella
p769
I701
sVchili seasoning mix
p770
I630
sVdill
p771
I450
sVrusset
p772
I705
sVsirloin
p773
I166
sVpart-skim ricotta cheese
p774
I328
sVsucralose sweetener
p775
I803
sVbutter salt
p776
I785
sVsunflower seeds
p777
I787
sVpenne
p778
I480
sVdried chives
p779
I748
sVchile paste
p780
I258
sVfresh lemon juice
p781
I69
sVfresh lime
p782
I403
sVkidney
p783
I751
sVcream
p784
I386
sVgarlic cloves
p785
I70
sVvanilla yogurt
p786
I772
sVchopped tomatoes
p787
I51
sVlemon
p788
I177
sVprepared mustard
p789
I694
sVground turkey
p790
I67
sVtomato sauce
p791
I250
sVdrippings
p792
I639
sVcurry powder
p793
I158
sVtoasted slivered almonds
p794
I688
sVwhipping cream
p795
I169
sVshredded American cheese
p796
I821
sVwhipped cream
p797
I562
sVtart
p798
I522
sVlime juice
p799
I75
sVrotisserie chicken
p800
I534
sVtomato soup
p801
I713
sVmustard
p802
I437
sVseedless red grapes
p803
I676
sVminced garlic
p804
I256
sVground allspice
p805
I279
sVquinoa
p806
I271
sVbrandy
p807
I615
sVginger root
p808
I573
sVrice wine
p809
I461
sVradishes
p810
I244
sVfresh ginger root
p811
I31
sVmasa
p812
I472
sVchopped fresh mint
p813
I93
sVshredded cabbage
p814
I121
sVsoy sauce
p815
I17
sVextra-lean ground beef
p816
I318
sVAlfredo sauce
p817
I527
sVground lamb
p818
I277
sVstewed tomatoes
p819
I499
sVberries
p820
I482
sVcondensed milk
p821
I604
sVhot water
p822
I349
s.